; Listing generated by Microsoft (R) Optimizing Compiler Version 19.32.31328.0 

	TITLE	C:\Users\lib\source\repos\ida07\ida07\Debug\ida07.obj
	.686P
	.XMM
	include listing.inc
	.model	flat

INCLUDELIB MSVCRTD
INCLUDELIB OLDNAMES

msvcjmc	SEGMENT
__04774D4A_concurrencysal@h DB 01H
__7F933D66_sal@h DB 01H
__3A229980_vadefs@h DB 01H
__C6D752D9_vcruntime@h DB 01H
__6569C2CA_corecrt@h DB 01H
__A2143F22_corecrt_stdio_config@h DB 01H
__829E1958_corecrt_wstdio@h DB 01H
__6DFAE8B8_stdio@h DB 01H
__DDA44FDE_ida07@cpp DB 01H
msvcjmc	ENDS
PUBLIC	___local_stdio_printf_options
PUBLIC	__vfprintf_l
PUBLIC	_printf
PUBLIC	?fun_3@@YAHH@Z					; fun_3
PUBLIC	?fun_2@@YAHH@Z					; fun_2
PUBLIC	?fun_1@@YAHH@Z					; fun_1
PUBLIC	_main
PUBLIC	__JustMyCode_Default
PUBLIC	?_OptionsStorage@?1??__local_stdio_printf_options@@9@4_KA ; `__local_stdio_printf_options'::`2'::_OptionsStorage
PUBLIC	??_C@_0BC@OHAFMDGK@This?5is?5fun_3?5?$CFd?6@	; `string'
PUBLIC	??_C@_0BC@CMFJBAMP@This?5is?5fun_2?5?$CFd?6@	; `string'
PUBLIC	??_C@_0BC@KKMNGCGB@This?5is?5fun_1?5?$CFd?6@	; `string'
PUBLIC	??_C@_0O@NFOCKKMG@Hello?5World?$CB?6@		; `string'
EXTRN	__imp____acrt_iob_func:PROC
EXTRN	__imp____stdio_common_vfprintf:PROC
EXTRN	@__CheckForDebuggerJustMyCode@4:PROC
EXTRN	__RTC_CheckEsp:PROC
EXTRN	__RTC_InitBase:PROC
EXTRN	__RTC_Shutdown:PROC
;	COMDAT ?_OptionsStorage@?1??__local_stdio_printf_options@@9@4_KA
_BSS	SEGMENT
?_OptionsStorage@?1??__local_stdio_printf_options@@9@4_KA DQ 01H DUP (?) ; `__local_stdio_printf_options'::`2'::_OptionsStorage
_BSS	ENDS
;	COMDAT rtc$TMZ
rtc$TMZ	SEGMENT
__RTC_Shutdown.rtc$TMZ DD FLAT:__RTC_Shutdown
rtc$TMZ	ENDS
;	COMDAT rtc$IMZ
rtc$IMZ	SEGMENT
__RTC_InitBase.rtc$IMZ DD FLAT:__RTC_InitBase
rtc$IMZ	ENDS
;	COMDAT ??_C@_0O@NFOCKKMG@Hello?5World?$CB?6@
CONST	SEGMENT
??_C@_0O@NFOCKKMG@Hello?5World?$CB?6@ DB 'Hello World!', 0aH, 00H ; `string'
CONST	ENDS
;	COMDAT ??_C@_0BC@KKMNGCGB@This?5is?5fun_1?5?$CFd?6@
CONST	SEGMENT
??_C@_0BC@KKMNGCGB@This?5is?5fun_1?5?$CFd?6@ DB 'This is fun_1 %d', 0aH, 00H ; `string'
CONST	ENDS
;	COMDAT ??_C@_0BC@CMFJBAMP@This?5is?5fun_2?5?$CFd?6@
CONST	SEGMENT
??_C@_0BC@CMFJBAMP@This?5is?5fun_2?5?$CFd?6@ DB 'This is fun_2 %d', 0aH, 00H ; `string'
CONST	ENDS
;	COMDAT ??_C@_0BC@OHAFMDGK@This?5is?5fun_3?5?$CFd?6@
CONST	SEGMENT
??_C@_0BC@OHAFMDGK@This?5is?5fun_3?5?$CFd?6@ DB 'This is fun_3 %d', 0aH, 00H ; `string'
CONST	ENDS
; Function compile flags: /Odt
;	COMDAT __JustMyCode_Default
_TEXT	SEGMENT
__JustMyCode_Default PROC				; COMDAT
	push	ebp
	mov	ebp, esp
	pop	ebp
	ret	0
__JustMyCode_Default ENDP
_TEXT	ENDS
; Function compile flags: /Odtp /RTCsu /ZI
;	COMDAT _main
_TEXT	SEGMENT
_main	PROC						; COMDAT
; File C:\Users\lib\source\repos\ida07\ida07\ida07.cpp
; Line 23
	push	ebp
	mov	ebp, esp
	sub	esp, 192				; 000000c0H
	push	ebx
	push	esi
	push	edi
	mov	edi, ebp
	xor	ecx, ecx
	mov	eax, -858993460				; ccccccccH
	rep stosd
	mov	ecx, OFFSET __DDA44FDE_ida07@cpp
	call	@__CheckForDebuggerJustMyCode@4
; Line 24
	push	OFFSET ??_C@_0O@NFOCKKMG@Hello?5World?$CB?6@
	call	_printf
	add	esp, 4
; Line 25
	push	1
	call	?fun_1@@YAHH@Z				; fun_1
	add	esp, 4
; Line 26
	xor	eax, eax
	pop	edi
	pop	esi
	pop	ebx
	add	esp, 192				; 000000c0H
	cmp	ebp, esp
	call	__RTC_CheckEsp
	mov	esp, ebp
	pop	ebp
	ret	0
_main	ENDP
_TEXT	ENDS
; Function compile flags: /Odtp /RTCsu /ZI
;	COMDAT ?fun_1@@YAHH@Z
_TEXT	SEGMENT
_i$ = 8							; size = 4
?fun_1@@YAHH@Z PROC					; fun_1, COMDAT
; File C:\Users\lib\source\repos\ida07\ida07\ida07.cpp
; Line 16
	push	ebp
	mov	ebp, esp
	sub	esp, 192				; 000000c0H
	push	ebx
	push	esi
	push	edi
	mov	edi, ebp
	xor	ecx, ecx
	mov	eax, -858993460				; ccccccccH
	rep stosd
	mov	ecx, OFFSET __DDA44FDE_ida07@cpp
	call	@__CheckForDebuggerJustMyCode@4
; Line 17
	mov	eax, DWORD PTR _i$[ebp]
	add	eax, 1
	push	eax
	push	OFFSET ??_C@_0BC@KKMNGCGB@This?5is?5fun_1?5?$CFd?6@
	call	_printf
	add	esp, 8
; Line 18
	mov	eax, DWORD PTR _i$[ebp]
	push	eax
	call	?fun_2@@YAHH@Z				; fun_2
	add	esp, 4
; Line 19
	pop	edi
	pop	esi
	pop	ebx
	add	esp, 192				; 000000c0H
	cmp	ebp, esp
	call	__RTC_CheckEsp
	mov	esp, ebp
	pop	ebp
	ret	0
?fun_1@@YAHH@Z ENDP					; fun_1
_TEXT	ENDS
; Function compile flags: /Odtp /RTCsu /ZI
;	COMDAT ?fun_2@@YAHH@Z
_TEXT	SEGMENT
_i$ = 8							; size = 4
?fun_2@@YAHH@Z PROC					; fun_2, COMDAT
; File C:\Users\lib\source\repos\ida07\ida07\ida07.cpp
; Line 10
	push	ebp
	mov	ebp, esp
	sub	esp, 192				; 000000c0H
	push	ebx
	push	esi
	push	edi
	mov	edi, ebp
	xor	ecx, ecx
	mov	eax, -858993460				; ccccccccH
	rep stosd
	mov	ecx, OFFSET __DDA44FDE_ida07@cpp
	call	@__CheckForDebuggerJustMyCode@4
; Line 11
	mov	eax, DWORD PTR _i$[ebp]
	add	eax, 2
	push	eax
	push	OFFSET ??_C@_0BC@CMFJBAMP@This?5is?5fun_2?5?$CFd?6@
	call	_printf
	add	esp, 8
; Line 12
	mov	eax, DWORD PTR _i$[ebp]
	push	eax
	call	?fun_3@@YAHH@Z				; fun_3
	add	esp, 4
; Line 13
	pop	edi
	pop	esi
	pop	ebx
	add	esp, 192				; 000000c0H
	cmp	ebp, esp
	call	__RTC_CheckEsp
	mov	esp, ebp
	pop	ebp
	ret	0
?fun_2@@YAHH@Z ENDP					; fun_2
_TEXT	ENDS
; Function compile flags: /Odtp /RTCsu /ZI
;	COMDAT ?fun_3@@YAHH@Z
_TEXT	SEGMENT
_i$ = 8							; size = 4
?fun_3@@YAHH@Z PROC					; fun_3, COMDAT
; File C:\Users\lib\source\repos\ida07\ida07\ida07.cpp
; Line 4
	push	ebp
	mov	ebp, esp
	sub	esp, 192				; 000000c0H
	push	ebx
	push	esi
	push	edi
	mov	edi, ebp
	xor	ecx, ecx
	mov	eax, -858993460				; ccccccccH
	rep stosd
	mov	ecx, OFFSET __DDA44FDE_ida07@cpp
	call	@__CheckForDebuggerJustMyCode@4
; Line 5
	mov	eax, DWORD PTR _i$[ebp]
	add	eax, 3
	push	eax
	push	OFFSET ??_C@_0BC@OHAFMDGK@This?5is?5fun_3?5?$CFd?6@
	call	_printf
	add	esp, 8
; Line 6
	mov	eax, DWORD PTR _i$[ebp]
; Line 7
	pop	edi
	pop	esi
	pop	ebx
	add	esp, 192				; 000000c0H
	cmp	ebp, esp
	call	__RTC_CheckEsp
	mov	esp, ebp
	pop	ebp
	ret	0
?fun_3@@YAHH@Z ENDP					; fun_3
_TEXT	ENDS
; Function compile flags: /Odtp /RTCsu /ZI
;	COMDAT _printf
_TEXT	SEGMENT
__ArgList$ = -20					; size = 4
__Result$ = -8						; size = 4
__Format$ = 8						; size = 4
_printf	PROC						; COMDAT
; File C:\Program Files (x86)\Windows Kits\10\Include\10.0.19041.0\ucrt\stdio.h
; Line 956
	push	ebp
	mov	ebp, esp
	sub	esp, 228				; 000000e4H
	push	ebx
	push	esi
	push	edi
	lea	edi, DWORD PTR [ebp-36]
	mov	ecx, 9
	mov	eax, -858993460				; ccccccccH
	rep stosd
	mov	ecx, OFFSET __6DFAE8B8_stdio@h
	call	@__CheckForDebuggerJustMyCode@4
; Line 959
	lea	eax, DWORD PTR __Format$[ebp+4]
	mov	DWORD PTR __ArgList$[ebp], eax
; Line 960
	mov	eax, DWORD PTR __ArgList$[ebp]
	push	eax
	push	0
	mov	ecx, DWORD PTR __Format$[ebp]
	push	ecx
	mov	esi, esp
	push	1
	call	DWORD PTR __imp____acrt_iob_func
	add	esp, 4
	cmp	esi, esp
	call	__RTC_CheckEsp
	push	eax
	call	__vfprintf_l
	add	esp, 16					; 00000010H
	mov	DWORD PTR __Result$[ebp], eax
; Line 961
	mov	DWORD PTR __ArgList$[ebp], 0
; Line 962
	mov	eax, DWORD PTR __Result$[ebp]
; Line 963
	pop	edi
	pop	esi
	pop	ebx
	add	esp, 228				; 000000e4H
	cmp	ebp, esp
	call	__RTC_CheckEsp
	mov	esp, ebp
	pop	ebp
	ret	0
_printf	ENDP
_TEXT	ENDS
; Function compile flags: /Odtp /RTCsu /ZI
;	COMDAT __vfprintf_l
_TEXT	SEGMENT
__Stream$ = 8						; size = 4
__Format$ = 12						; size = 4
__Locale$ = 16						; size = 4
__ArgList$ = 20						; size = 4
__vfprintf_l PROC					; COMDAT
; File C:\Program Files (x86)\Windows Kits\10\Include\10.0.19041.0\ucrt\stdio.h
; Line 644
	push	ebp
	mov	ebp, esp
	sub	esp, 192				; 000000c0H
	push	ebx
	push	esi
	push	edi
	mov	edi, ebp
	xor	ecx, ecx
	mov	eax, -858993460				; ccccccccH
	rep stosd
	mov	ecx, OFFSET __6DFAE8B8_stdio@h
	call	@__CheckForDebuggerJustMyCode@4
; Line 645
	mov	esi, esp
	mov	eax, DWORD PTR __ArgList$[ebp]
	push	eax
	mov	ecx, DWORD PTR __Locale$[ebp]
	push	ecx
	mov	edx, DWORD PTR __Format$[ebp]
	push	edx
	mov	eax, DWORD PTR __Stream$[ebp]
	push	eax
	call	___local_stdio_printf_options
	mov	ecx, DWORD PTR [eax+4]
	push	ecx
	mov	edx, DWORD PTR [eax]
	push	edx
	call	DWORD PTR __imp____stdio_common_vfprintf
	add	esp, 24					; 00000018H
	cmp	esi, esp
	call	__RTC_CheckEsp
; Line 646
	pop	edi
	pop	esi
	pop	ebx
	add	esp, 192				; 000000c0H
	cmp	ebp, esp
	call	__RTC_CheckEsp
	mov	esp, ebp
	pop	ebp
	ret	0
__vfprintf_l ENDP
_TEXT	ENDS
; Function compile flags: /Odtp /RTCsu /ZI
;	COMDAT ___local_stdio_printf_options
_TEXT	SEGMENT
___local_stdio_printf_options PROC			; COMDAT
; File C:\Program Files (x86)\Windows Kits\10\Include\10.0.19041.0\ucrt\corecrt_stdio_config.h
; Line 90
	push	ebp
	mov	ebp, esp
	sub	esp, 192				; 000000c0H
	push	ebx
	push	esi
	push	edi
	mov	edi, ebp
	xor	ecx, ecx
	mov	eax, -858993460				; ccccccccH
	rep stosd
	mov	ecx, OFFSET __A2143F22_corecrt_stdio_config@h
	call	@__CheckForDebuggerJustMyCode@4
; Line 92
	mov	eax, OFFSET ?_OptionsStorage@?1??__local_stdio_printf_options@@9@4_KA ; `__local_stdio_printf_options'::`2'::_OptionsStorage
; Line 93
	pop	edi
	pop	esi
	pop	ebx
	add	esp, 192				; 000000c0H
	cmp	ebp, esp
	call	__RTC_CheckEsp
	mov	esp, ebp
	pop	ebp
	ret	0
___local_stdio_printf_options ENDP
_TEXT	ENDS
END
